target datalayout = "e-m:e-p270:32:32-p271:32:32-p272:64:64-i64:64-i128:128-f80:128-n8:16:32:64-S128"
target triple = "x86_64-pc-linux-gnu"

%struct.Wln_Ret_t_ = type { ptr, %struct.Vec_Int_t_, %struct.Vec_Int_t_, %struct.Vec_Int_t_, %struct.Vec_Int_t_, %struct.Vec_Int_t_, %struct.Vec_Int_t_, %struct.Vec_Int_t_, %struct.Vec_Int_t_, %struct.Vec_Int_t_, %struct.Vec_Int_t_, i32, i32 }
%struct.Vec_Int_t_ = type { i32, i32, ptr }
%struct.Wln_Ntk_t_ = type { ptr, ptr, i32, %struct.Vec_Int_t_, %struct.Vec_Int_t_, %struct.Vec_Int_t_, %struct.Vec_Int_t_, ptr, %struct.Vec_Int_t_, ptr, %struct.Vec_Int_t_, %struct.Vec_Int_t_, ptr, %struct.Vec_Str_t_, i32, %struct.Vec_Int_t_, %struct.Vec_Int_t_, %struct.Vec_Int_t_, %struct.Vec_Int_t_, %struct.Vec_Int_t_, %struct.Vec_Int_t_, %struct.Vec_Int_t_, %struct.Vec_Int_t_, ptr, [99 x i32], [99 x i32] }
%struct.Vec_Str_t_ = type { i32, i32, ptr }
%struct.Wln_Vec_t_ = type { i32, i32, %union.anon }
%union.anon = type { [1 x ptr] }

; Function Attrs: inlinehint nounwind uwtable
define internal i32 @Wln_ObjType(ptr noundef %0, i32 noundef %1) #2 {
  %3 = alloca ptr, align 8
  %4 = alloca i32, align 4
  store ptr %0, ptr %3, align 8, !tbaa !18
  store i32 %1, ptr %4, align 4, !tbaa !8
  %5 = load ptr, ptr %3, align 8, !tbaa !18
  %6 = getelementptr inbounds nuw %struct.Wln_Ntk_t_, ptr %5, i32 0, i32 6
  %7 = load i32, ptr %4, align 4, !tbaa !8
  %8 = call i32 @Vec_IntEntry(ptr noundef %6, i32 noundef %7)
  ret i32 %8
}

; Function Attrs: inlinehint nounwind uwtable
define internal ptr @Vec_IntEntryP(ptr noundef %0, i32 noundef %1) #2 {
  %3 = alloca ptr, align 8
  %4 = alloca i32, align 4
  store ptr %0, ptr %3, align 8, !tbaa !29
  store i32 %1, ptr %4, align 4, !tbaa !8
  %5 = load ptr, ptr %3, align 8, !tbaa !29
  %6 = getelementptr inbounds nuw %struct.Vec_Int_t_, ptr %5, i32 0, i32 2
  %7 = load ptr, ptr %6, align 8, !tbaa !31
  %8 = load i32, ptr %4, align 4, !tbaa !8
  %9 = sext i32 %8 to i64
  %10 = getelementptr inbounds i32, ptr %7, i64 %9
  ret ptr %10
}

; Function Attrs: inlinehint nounwind uwtable
define internal i32 @Vec_IntEntry(ptr noundef %0, i32 noundef %1) #2 {
  %3 = alloca ptr, align 8
  %4 = alloca i32, align 4
  store ptr %0, ptr %3, align 8, !tbaa !29
  store i32 %1, ptr %4, align 4, !tbaa !8
  %5 = load ptr, ptr %3, align 8, !tbaa !29
  %6 = getelementptr inbounds nuw %struct.Vec_Int_t_, ptr %5, i32 0, i32 2
  %7 = load ptr, ptr %6, align 8, !tbaa !31
  %8 = load i32, ptr %4, align 4, !tbaa !8
  %9 = sext i32 %8 to i64
  %10 = getelementptr inbounds i32, ptr %7, i64 %9
  %11 = load i32, ptr %10, align 4, !tbaa !8
  ret i32 %11
}

; Function Attrs: inlinehint nounwind uwtable
define internal i32 @Wln_ObjIsFf(ptr noundef %0, i32 noundef %1) #2 {
  %3 = alloca ptr, align 8
  %4 = alloca i32, align 4
  store ptr %0, ptr %3, align 8, !tbaa !18
  store i32 %1, ptr %4, align 4, !tbaa !8
  %5 = load ptr, ptr %3, align 8, !tbaa !18
  %6 = load i32, ptr %4, align 4, !tbaa !8
  %7 = call i32 @Wln_ObjType(ptr noundef %5, i32 noundef %6)
  %8 = icmp eq i32 %7, 89
  %9 = zext i1 %8 to i32
  ret i32 %9
}

; Function Attrs: inlinehint nounwind uwtable
define internal i32 @Wln_ObjIsCi(ptr noundef %0, i32 noundef %1) #2 {
  %3 = alloca ptr, align 8
  %4 = alloca i32, align 4
  store ptr %0, ptr %3, align 8, !tbaa !18
  store i32 %1, ptr %4, align 4, !tbaa !8
  %5 = load ptr, ptr %3, align 8, !tbaa !18
  %6 = load i32, ptr %4, align 4, !tbaa !8
  %7 = call i32 @Wln_ObjType(ptr noundef %5, i32 noundef %6)
  %8 = icmp eq i32 %7, 3
  %9 = zext i1 %8 to i32
  ret i32 %9
}

; Function Attrs: inlinehint nounwind uwtable
define internal i32 @Wln_ObjFaninNum(ptr noundef %0, i32 noundef %1) #2 {
  %3 = alloca ptr, align 8
  %4 = alloca i32, align 4
  store ptr %0, ptr %3, align 8, !tbaa !18
  store i32 %1, ptr %4, align 4, !tbaa !8
  %5 = load ptr, ptr %3, align 8, !tbaa !18
  %6 = getelementptr inbounds nuw %struct.Wln_Ntk_t_, ptr %5, i32 0, i32 7
  %7 = load ptr, ptr %6, align 8, !tbaa !19
  %8 = load i32, ptr %4, align 4, !tbaa !8
  %9 = sext i32 %8 to i64
  %10 = getelementptr inbounds %struct.Wln_Vec_t_, ptr %7, i64 %9
  %11 = getelementptr inbounds nuw %struct.Wln_Vec_t_, ptr %10, i32 0, i32 1
  %12 = load i32, ptr %11, align 4, !tbaa !27
  ret i32 %12
}

; Function Attrs: inlinehint nounwind uwtable
define internal ptr @Wln_RetFanins(ptr noundef %0, i32 noundef %1) #2 {
  %3 = alloca ptr, align 8
  %4 = alloca i32, align 4
  store ptr %0, ptr %3, align 8, !tbaa !3
  store i32 %1, ptr %4, align 4, !tbaa !8
  %5 = load ptr, ptr %3, align 8, !tbaa !3
  %6 = getelementptr inbounds nuw %struct.Wln_Ret_t_, ptr %5, i32 0, i32 1
  %7 = load ptr, ptr %3, align 8, !tbaa !3
  %8 = getelementptr inbounds nuw %struct.Wln_Ret_t_, ptr %7, i32 0, i32 1
  %9 = load i32, ptr %4, align 4, !tbaa !8
  %10 = call i32 @Vec_IntEntry(ptr noundef %8, i32 noundef %9)
  %11 = call ptr @Vec_IntEntryP(ptr noundef %6, i32 noundef %10)
  ret ptr %11
}

; Function Attrs: nounwind uwtable
define i32 @Wln_RetRemoveOneFanin(ptr noundef %0, i32 noundef %1) #0 {
  %3 = alloca ptr, align 8
  %4 = alloca i32, align 4
  %5 = alloca i32, align 4
  %6 = alloca i32, align 4
  %7 = alloca ptr, align 8
  %8 = alloca i32, align 4
  %9 = alloca i32, align 4
  %10 = alloca ptr, align 8
  store ptr %0, ptr %3, align 8, !tbaa !3
  store i32 %1, ptr %4, align 4, !tbaa !8
  call void @llvm.lifetime.start.p0(i64 4, ptr %5) #11
  call void @llvm.lifetime.start.p0(i64 4, ptr %6) #11
  call void @llvm.lifetime.start.p0(i64 8, ptr %7) #11
  call void @llvm.lifetime.start.p0(i64 4, ptr %8) #11
  call void @llvm.lifetime.start.p0(i64 4, ptr %9) #11
  store i32 -1, ptr %9, align 4, !tbaa !8
  call void @llvm.lifetime.start.p0(i64 8, ptr %10) #11
  %11 = load ptr, ptr %3, align 8, !tbaa !3
  %12 = load i32, ptr %4, align 4, !tbaa !8
  %13 = call ptr @Wln_RetFanins(ptr noundef %11, i32 noundef %12)
  store ptr %13, ptr %10, align 8, !tbaa !15
  store i32 0, ptr %5, align 4, !tbaa !8
  br label %14

14:                                               ; preds = %98, %2
  %15 = load i32, ptr %5, align 4, !tbaa !8
  %16 = load ptr, ptr %3, align 8, !tbaa !3
  %17 = getelementptr inbounds nuw %struct.Wln_Ret_t_, ptr %16, i32 0, i32 0
  %18 = load ptr, ptr %17, align 8, !tbaa !10
  %19 = load i32, ptr %4, align 4, !tbaa !8
  %20 = call i32 @Wln_ObjFaninNum(ptr noundef %18, i32 noundef %19)
  %21 = icmp slt i32 %15, %20
  br i1 %21, label %22, label %41

22:                                               ; preds = %14
  %23 = load ptr, ptr %3, align 8, !tbaa !3
  %24 = load i32, ptr %4, align 4, !tbaa !8
  %25 = call ptr @Wln_RetFanins(ptr noundef %23, i32 noundef %24)
  %26 = load i32, ptr %5, align 4, !tbaa !8
  %27 = mul nsw i32 2, %26
  %28 = sext i32 %27 to i64
  %29 = getelementptr inbounds i32, ptr %25, i64 %28
  %30 = load i32, ptr %29, align 4, !tbaa !8
  store i32 %30, ptr %6, align 4, !tbaa !8
  br i1 true, label %31, label %41

31:                                               ; preds = %22
  %32 = load ptr, ptr %3, align 8, !tbaa !3
  %33 = load i32, ptr %4, align 4, !tbaa !8
  %34 = call ptr @Wln_RetFanins(ptr noundef %32, i32 noundef %33)
  %35 = load i32, ptr %5, align 4, !tbaa !8
  %36 = mul nsw i32 2, %35
  %37 = sext i32 %36 to i64
  %38 = getelementptr inbounds i32, ptr %34, i64 %37
  %39 = getelementptr inbounds i32, ptr %38, i64 1
  store ptr %39, ptr %7, align 8, !tbaa !15
  %40 = icmp ne ptr %39, null
  br label %41

41:                                               ; preds = %31, %22, %14
  %42 = phi i1 [ false, %22 ], [ false, %14 ], [ %40, %31 ]
  br i1 %42, label %43, label %101

43:                                               ; preds = %41
  %44 = load i32, ptr %6, align 4, !tbaa !8
  %45 = icmp ne i32 %44, 0
  br i1 %45, label %46, label %60

46:                                               ; preds = %43
  %47 = load ptr, ptr %3, align 8, !tbaa !3
  %48 = getelementptr inbounds nuw %struct.Wln_Ret_t_, ptr %47, i32 0, i32 0
  %49 = load ptr, ptr %48, align 8, !tbaa !10
  %50 = load i32, ptr %6, align 4, !tbaa !8
  %51 = call i32 @Wln_ObjFaninNum(ptr noundef %49, i32 noundef %50)
  %52 = icmp ne i32 %51, 0
  br i1 %52, label %61, label %53

53:                                               ; preds = %46
  %54 = load ptr, ptr %3, align 8, !tbaa !3
  %55 = getelementptr inbounds nuw %struct.Wln_Ret_t_, ptr %54, i32 0, i32 0
  %56 = load ptr, ptr %55, align 8, !tbaa !10
  %57 = load i32, ptr %6, align 4, !tbaa !8
  %58 = call i32 @Wln_ObjIsCi(ptr noundef %56, i32 noundef %57)
  %59 = icmp ne i32 %58, 0
  br i1 %59, label %61, label %60

60:                                               ; preds = %53, %43
  br label %97

61:                                               ; preds = %53, %46
  %62 = load ptr, ptr %3, align 8, !tbaa !3
  %63 = getelementptr inbounds nuw %struct.Wln_Ret_t_, ptr %62, i32 0, i32 0
  %64 = load ptr, ptr %63, align 8, !tbaa !10
  %65 = load i32, ptr %4, align 4, !tbaa !8
  %66 = call i32 @Wln_ObjIsFf(ptr noundef %64, i32 noundef %65)
  %67 = icmp ne i32 %66, 0
  br i1 %67, label %68, label %72

68:                                               ; preds = %61
  %69 = load i32, ptr %5, align 4, !tbaa !8
  %70 = icmp sgt i32 %69, 0
  br i1 %70, label %71, label %72

71:                                               ; preds = %68
  br label %98

72:                                               ; preds = %68, %61
  %73 = load ptr, ptr %3, align 8, !tbaa !3
  %74 = getelementptr inbounds nuw %struct.Wln_Ret_t_, ptr %73, i32 0, i32 3
  %75 = load ptr, ptr %7, align 8, !tbaa !15
  %76 = getelementptr inbounds i32, ptr %75, i64 0
  %77 = load i32, ptr %76, align 4, !tbaa !8
  %78 = add nsw i32 %77, 1
  %79 = call i32 @Vec_IntEntry(ptr noundef %74, i32 noundef %78)
  store i32 %79, ptr %8, align 4, !tbaa !8
  %80 = load ptr, ptr %3, align 8, !tbaa !3
  %81 = getelementptr inbounds nuw %struct.Wln_Ret_t_, ptr %80, i32 0, i32 3
  %82 = load ptr, ptr %7, align 8, !tbaa !15
  %83 = getelementptr inbounds i32, ptr %82, i64 0
  %84 = load i32, ptr %83, align 4, !tbaa !8
  %85 = call i32 @Vec_IntEntry(ptr noundef %81, i32 noundef %84)
  %86 = load ptr, ptr %10, align 8, !tbaa !15
  %87 = load i32, ptr %5, align 4, !tbaa !8
  %88 = mul nsw i32 2, %87
  %89 = add nsw i32 %88, 1
  %90 = sext i32 %89 to i64
  %91 = getelementptr inbounds i32, ptr %86, i64 %90
  store i32 %85, ptr %91, align 4, !tbaa !8
  %92 = load i32, ptr %9, align 4, !tbaa !8
  %93 = icmp eq i32 %92, -1
  br i1 %93, label %94, label %96

94:                                               ; preds = %72
  %95 = load i32, ptr %8, align 4, !tbaa !8
  store i32 %95, ptr %9, align 4, !tbaa !8
  br label %96

96:                                               ; preds = %94, %72
  br label %97

97:                                               ; preds = %96, %60
  br label %98

98:                                               ; preds = %97, %71
  %99 = load i32, ptr %5, align 4, !tbaa !8
  %100 = add nsw i32 %99, 1
  store i32 %100, ptr %5, align 4, !tbaa !8
  br label %14, !llvm.loop !98

101:                                              ; preds = %41
  %102 = load i32, ptr %9, align 4, !tbaa !8
  call void @llvm.lifetime.end.p0(i64 8, ptr %10) #11
  call void @llvm.lifetime.end.p0(i64 4, ptr %9) #11
  call void @llvm.lifetime.end.p0(i64 4, ptr %8) #11
  call void @llvm.lifetime.end.p0(i64 8, ptr %7) #11
  call void @llvm.lifetime.end.p0(i64 4, ptr %6) #11
  call void @llvm.lifetime.end.p0(i64 4, ptr %5) #11
  ret i32 %102
}