; Function Attrs: nofree norecurse nosync nounwind memory(readwrite, inaccessiblemem: none) uwtable
define i32 @Wln_RetRemoveOneFanin(ptr noundef readonly captures(none) %0, i32 noundef %1) local_unnamed_addr #14 {
  %3 = getelementptr i8, ptr %0, i64 16
  %.val38 = load ptr, ptr %3, align 8, !tbaa !12
  %4 = sext i32 %1 to i64
  %5 = getelementptr inbounds i32, ptr %.val38, i64 %4
  %6 = load i32, ptr %5, align 4, !tbaa !13
  %7 = sext i32 %6 to i64
  %8 = getelementptr inbounds i32, ptr %.val38, i64 %7
  %9 = load ptr, ptr %0, align 8, !tbaa !3
  %10 = getelementptr i8, ptr %9, i64 88
  %.val35 = load ptr, ptr %10, align 8, !tbaa !14
  %11 = getelementptr inbounds %struct.Wln_Vec_t_, ptr %.val35, i64 %4, i32 1
  %12 = load i32, ptr %11, align 4, !tbaa !22
  %13 = icmp sgt i32 %12, 0
  br i1 %13, label %.lr.ph, label %.critedge

.lr.ph:                                           ; preds = %2
  %14 = getelementptr i8, ptr %9, i64 80
  %15 = getelementptr i8, ptr %0, i64 48
  br label %16

16:                                               ; preds = %.lr.ph, %47
  %17 = phi i32 [ %12, %.lr.ph ], [ %48, %47 ]
  %indvars.iv = phi i64 [ 0, %.lr.ph ], [ %indvars.iv.next, %47 ]
  %.02942 = phi i32 [ -1, %.lr.ph ], [ %.1, %47 ]
  %18 = load i32, ptr %5, align 4, !tbaa !13
  %19 = sext i32 %18 to i64
  %20 = getelementptr inbounds i32, ptr %.val38, i64 %19
  %21 = shl nuw nsw i64 %indvars.iv, 1
  %22 = getelementptr inbounds nuw i32, ptr %20, i64 %21
  %23 = load i32, ptr %22, align 4, !tbaa !13
  %24 = getelementptr inbounds nuw i8, ptr %22, i64 4
  %.not = icmp eq i32 %23, 0
  br i1 %.not, label %47, label %25

25:                                               ; preds = %16
  %26 = sext i32 %23 to i64
  %27 = getelementptr inbounds %struct.Wln_Vec_t_, ptr %.val35, i64 %26, i32 1
  %28 = load i32, ptr %27, align 4, !tbaa !22
  %.not31 = icmp eq i32 %28, 0
  %.val40.pre = load ptr, ptr %14, align 8, !tbaa !12
  br i1 %.not31, label %29, label %32

29:                                               ; preds = %25
  %30 = getelementptr inbounds i32, ptr %.val40.pre, i64 %26
  %31 = load i32, ptr %30, align 4, !tbaa !13
  %.not41 = icmp eq i32 %31, 3
  br i1 %.not41, label %32, label %47

32:                                               ; preds = %29, %25
  %33 = getelementptr inbounds i32, ptr %.val40.pre, i64 %4
  %34 = load i32, ptr %33, align 4, !tbaa !13
  %35 = icmp eq i32 %34, 89
  %36 = icmp ne i64 %indvars.iv, 0
  %or.cond = and i1 %36, %35
  br i1 %or.cond, label %47, label %37

37:                                               ; preds = %32
  %38 = load i32, ptr %24, align 4, !tbaa !13
  %.val33 = load ptr, ptr %15, align 8, !tbaa !12
  %39 = sext i32 %38 to i64
  %40 = getelementptr i32, ptr %.val33, i64 %39
  %41 = getelementptr i8, ptr %40, i64 4
  %42 = load i32, ptr %41, align 4, !tbaa !13
  %43 = load i32, ptr %40, align 4, !tbaa !13
  %44 = or disjoint i64 %21, 1
  %45 = getelementptr inbounds nuw i32, ptr %8, i64 %44
  store i32 %43, ptr %45, align 4, !tbaa !13
  %46 = icmp eq i32 %.02942, -1
  %spec.select = select i1 %46, i32 %42, i32 %.02942
  %.pre = load i32, ptr %11, align 4, !tbaa !22
  br label %47

47:                                               ; preds = %37, %29, %16, %32
  %48 = phi i32 [ %17, %32 ], [ %17, %29 ], [ %17, %16 ], [ %.pre, %37 ]
  %.1 = phi i32 [ %.02942, %32 ], [ %.02942, %29 ], [ %.02942, %16 ], [ %spec.select, %37 ]
  %indvars.iv.next = add nuw nsw i64 %indvars.iv, 1
  %49 = sext i32 %48 to i64
  %50 = icmp slt i64 %indvars.iv.next, %49
  br i1 %50, label %16, label %.critedge, !llvm.loop !94

.critedge:                                        ; preds = %47, %2
  %.029.lcssa = phi i32 [ -1, %2 ], [ %.1, %47 ]
  ret i32 %.029.lcssa
}